ccopy_reg
_reconstructor
p0
(cdata.components.player
Player
p1
c__builtin__
object
p2
Ntp3
Rp4
(dp5
S'portfolio'
p6
g0
(cdata.components.player
Portfolio
p7
g2
Ntp8
Rp9
(dp10
S'player'
p11
g4
sS'stocks'
p12
(dp13
sbsS'cash'
p14
I100000
sb.